(dp1
S'OriginalConfig'
p2
ccopy_reg
_reconstructor
p3
(cWMCore.Configuration
Configuration
p4
c__builtin__
object
p5
NtRp6
(dp7
S'Site'
p8
g3
(cWMCore.Configuration
ConfigSection
p9
g5
NtRp10
(dp11
S'_internal_skipChecks'
p12
I00
sS'_internal_documentation'
p13
S''
sS'_internal_settings'
p14
c__builtin__
set
p15
((lp16
S'storageSite'
p17
atRp18
sS'_internal_name'
p19
g8
sS'_internal_docstrings'
p20
(dp21
sS'_internal_children'
p22
g15
((ltRp23
sg17
S'T3_US_FNALLPC'
p24
sS'_internal_parent_ref'
p25
NsbsS'_internal_sections'
p26
(lp27
S'General'
p28
aS'JobType'
p29
aS'Data'
p30
ag8
aS'User'
p31
aS'Debug'
p32
asg28
g3
(g9
g5
NtRp33
(dp34
g12
I00
sg13
S''
sg14
g15
((lp35
S'workArea'
p36
aS'requestName'
p37
atRp38
sg19
g28
sg20
(dp39
sg22
g15
((ltRp40
sg37
S'aGun_a0_5'
p41
sg25
Nsg36
S'/uscms_data/d3/sclark/pGun_genTest/ParticleGunGeneration/CMSSW_8_0_25/src/aGun_Generation/crab_projects'
p42
sbsS'_internal_webapps'
p43
(lp44
sg31
g3
(g9
g5
NtRp45
(dp46
g12
I00
sg13
S''
sg14
g15
((ltRp47
sg19
g31
sg20
(dp48
sg22
g15
((ltRp49
sg25
NsbsS'_internal_components'
p50
(lp51
sg32
g3
(g9
g5
NtRp52
(dp53
g12
I00
sg13
S''
sg14
g15
((ltRp54
sg19
g32
sg20
(dp55
sg22
g15
((ltRp56
sg25
Nsbsg30
g3
(g9
g5
NtRp57
(dp58
S'outputDatasetTag'
p59
S'GENSIM'
p60
sg12
I00
sS'unitsPerJob'
p61
I100
sg13
S''
sg14
g15
((lp62
g59
aS'totalUnits'
p63
ag61
aS'splitting'
p64
aS'outLFNDirBase'
p65
aS'outputPrimaryDataset'
p66
aS'publication'
p67
atRp68
sg65
S'/store/local/aGun_Generation/a0_5'
p69
sg19
g30
sg64
S'EventBased'
p70
sg20
(dp71
sg22
g15
((ltRp72
sg67
I01
sg66
S'aGun_Generation'
p73
sg25
Nsg63
I200
sbsg29
g3
(g9
g5
NtRp74
(dp75
g12
I00
sg13
S''
sg14
g15
((lp76
S'psetName'
p77
aS'pluginName'
p78
atRp79
sg19
g29
sg20
(dp80
sg78
S'PrivateMC'
p81
sg22
g15
((ltRp82
sg77
S'/uscms_data/d3/sclark/pGun_genTest/ParticleGunGeneration/CMSSW_8_0_25/src/aGun_Generation/GunSafe/aGun_a0_5.py'
p83
sg25
NsbsbsS'voGroup'
p84
S''
sS'Server'
p85
S'cmsweb.cern.ch'
p86
sS'instance'
p87
S'prod'
p88
sS'RequestName'
p89
V200318_142327:stclark_crab_aGun_a0_5
p90
sS'voRole'
p91
S'NULL'
p92
sS'Port'
p93
S''
s.